target datalayout = "e-m:e-p270:32:32-p271:32:32-p272:64:64-i64:64-i128:128-f80:128-n8:16:32:64-S128"
target triple = "x86_64-pc-linux-gnu"

%class.btCollisionDispatcher = type { %class.btDispatcher, i32, [4 x i8], %class.btAlignedObjectArray, ptr, ptr, ptr, [36 x [36 x ptr]], [36 x [36 x ptr]], ptr }
%class.btDispatcher = type { ptr }
%class.btAlignedObjectArray = type <{ [4 x i8], i32, i32, [4 x i8], ptr, i8, [7 x i8] }>
%class.btPoolAllocator = type <{ i32, i32, i32, [4 x i8], ptr, ptr, %class.btSpinMutex, [4 x i8] }>
%class.btSpinMutex = type { i32 }

; Function Attrs: inlinehint mustprogress nounwind uwtable
define linkonce_odr dso_local void @_Z13btMutexUnlockP11btSpinMutex(ptr noundef %0) #3 comdat {
  %2 = alloca ptr, align 8
  store ptr %0, ptr %2, align 8, !tbaa !137
  ret void
}

; Function Attrs: inlinehint mustprogress nounwind uwtable
define linkonce_odr dso_local void @_Z11btMutexLockP11btSpinMutex(ptr noundef %0) #3 comdat {
  %2 = alloca ptr, align 8
  store ptr %0, ptr %2, align 8, !tbaa !137
  ret void
}

; Function Attrs: mustprogress uwtable
define linkonce_odr dso_local noundef ptr @_ZN15btPoolAllocator8allocateEi(ptr noundef nonnull align 8 dereferenceable(36) %0, i32 noundef %1) #2 comdat align 2 {
  %3 = alloca ptr, align 8
  %4 = alloca i32, align 4
  %5 = alloca ptr, align 8
  store ptr %0, ptr %3, align 8, !tbaa !77
  store i32 %1, ptr %4, align 4, !tbaa !9
  %6 = load ptr, ptr %3, align 8
  %7 = getelementptr inbounds nuw %class.btPoolAllocator, ptr %6, i32 0, i32 6
  call void @_Z11btMutexLockP11btSpinMutex(ptr noundef %7)
  call void @llvm.lifetime.start.p0(i64 8, ptr %5) #11
  %8 = getelementptr inbounds nuw %class.btPoolAllocator, ptr %6, i32 0, i32 4
  %9 = load ptr, ptr %8, align 8, !tbaa !78
  store ptr %9, ptr %5, align 8, !tbaa !38
  %10 = getelementptr inbounds nuw %class.btPoolAllocator, ptr %6, i32 0, i32 4
  %11 = load ptr, ptr %10, align 8, !tbaa !78
  %12 = icmp ne ptr null, %11
  br i1 %12, label %13, label %21

13:                                               ; preds = %2
  %14 = getelementptr inbounds nuw %class.btPoolAllocator, ptr %6, i32 0, i32 4
  %15 = load ptr, ptr %14, align 8, !tbaa !78
  %16 = load ptr, ptr %15, align 8, !tbaa !38
  %17 = getelementptr inbounds nuw %class.btPoolAllocator, ptr %6, i32 0, i32 4
  store ptr %16, ptr %17, align 8, !tbaa !78
  %18 = getelementptr inbounds nuw %class.btPoolAllocator, ptr %6, i32 0, i32 2
  %19 = load i32, ptr %18, align 8, !tbaa !82
  %20 = add nsw i32 %19, -1
  store i32 %20, ptr %18, align 8, !tbaa !82
  br label %21

21:                                               ; preds = %13, %2
  %22 = getelementptr inbounds nuw %class.btPoolAllocator, ptr %6, i32 0, i32 6
  call void @_Z13btMutexUnlockP11btSpinMutex(ptr noundef %22)
  %23 = load ptr, ptr %5, align 8, !tbaa !38
  call void @llvm.lifetime.end.p0(i64 8, ptr %5) #11
  ret ptr %23
}

; Function Attrs: mustprogress uwtable
define dso_local noundef ptr @_ZN21btCollisionDispatcher26allocateCollisionAlgorithmEi(ptr noundef nonnull align 8 dereferenceable(20816) %0, i32 noundef %1) unnamed_addr #2 align 2 {
  %3 = alloca ptr, align 8
  %4 = alloca ptr, align 8
  %5 = alloca i32, align 4
  %6 = alloca ptr, align 8
  %7 = alloca i32, align 4
  store ptr %0, ptr %4, align 8, !tbaa !12
  store i32 %1, ptr %5, align 4, !tbaa !9
  %8 = load ptr, ptr %4, align 8
  call void @llvm.lifetime.start.p0(i64 8, ptr %6) #11
  %9 = getelementptr inbounds nuw %class.btCollisionDispatcher, ptr %8, i32 0, i32 5
  %10 = load ptr, ptr %9, align 8, !tbaa !27
  %11 = load i32, ptr %5, align 4, !tbaa !9
  %12 = call noundef ptr @_ZN15btPoolAllocator8allocateEi(ptr noundef nonnull align 8 dereferenceable(36) %10, i32 noundef %11)
  store ptr %12, ptr %6, align 8, !tbaa !38
  %13 = load ptr, ptr %6, align 8, !tbaa !38
  %14 = icmp eq ptr null, %13
  br i1 %14, label %15, label %19

15:                                               ; preds = %2
  %16 = load i32, ptr %5, align 4, !tbaa !9
  %17 = sext i32 %16 to i64
  %18 = call noundef ptr @_Z22btAlignedAllocInternalmi(i64 noundef %17, i32 noundef 16)
  store ptr %18, ptr %3, align 8
  store i32 1, ptr %7, align 4
  br label %21

19:                                               ; preds = %2
  %20 = load ptr, ptr %6, align 8, !tbaa !38
  store ptr %20, ptr %3, align 8
  store i32 1, ptr %7, align 4
  br label %21

21:                                               ; preds = %19, %15
  call void @llvm.lifetime.end.p0(i64 8, ptr %6) #11
  %22 = load ptr, ptr %3, align 8
  ret ptr %22
}