; Function Attrs: mustprogress uwtable
define dso_local noundef ptr @_ZN21btCollisionDispatcher26allocateCollisionAlgorithmEi(ptr noundef nonnull readonly align 8 captures(none) dereferenceable(20816) %0, i32 noundef %1) unnamed_addr #0 align 2 {
  %3 = getelementptr inbounds nuw i8, ptr %0, i64 56
  %4 = load ptr, ptr %3, align 8, !tbaa !25
  %5 = getelementptr inbounds nuw i8, ptr %4, i64 16
  %6 = load ptr, ptr %5, align 8, !tbaa !69
  %.not.i = icmp eq ptr %6, null
  br i1 %.not.i, label %11, label %_ZN15btPoolAllocator8allocateEi.exit

_ZN15btPoolAllocator8allocateEi.exit:             ; preds = %2
  %7 = load ptr, ptr %6, align 8, !tbaa !73
  store ptr %7, ptr %5, align 8, !tbaa !69
  %8 = getelementptr inbounds nuw i8, ptr %4, i64 8
  %9 = load i32, ptr %8, align 8, !tbaa !74
  %10 = add nsw i32 %9, -1
  store i32 %10, ptr %8, align 8, !tbaa !74
  br label %14

11:                                               ; preds = %2
  %12 = sext i32 %1 to i64
  %13 = tail call noundef ptr @_Z22btAlignedAllocInternalmi(i64 noundef %12, i32 noundef 16)
  br label %14

14:                                               ; preds = %_ZN15btPoolAllocator8allocateEi.exit, %11
  %.0 = phi ptr [ %13, %11 ], [ %6, %_ZN15btPoolAllocator8allocateEi.exit ]
  ret ptr %.0
}